; Function Attrs: mustprogress uwtable
define noundef signext i8 @_ZN8facebook5velox17mapNameToTypeKindERKNSt7__cxx1112basic_stringIcSt11char_traitsIcESaIcEEE(ptr noundef nonnull align 8 dereferenceable(32) %name) local_unnamed_addr #0 {
entry:
  %call = tail call noundef nonnull align 8 dereferenceable(56) ptr @_ZN8facebook5velox16getTypeStringMapB5cxx11Ev()
  %call.i = tail call ptr @_ZNKSt10_HashtableINSt7__cxx1112basic_stringIcSt11char_traitsIcESaIcEEESt4pairIKS5_N8facebook5velox8TypeKindEESaISB_ENSt8__detail10_Select1stESt8equal_toIS5_ESt4hashIS5_ENSD_18_Mod_range_hashingENSD_20_Default_ranged_hashENSD_20_Prime_rehash_policyENSD_17_Hashtable_traitsILb1ELb0ELb1EEEE4findERS7_(ptr noundef nonnull align 8 dereferenceable(56) @_ZZN8facebook5velox16getTypeStringMapB5cxx11EvE14kTypeStringMapB5cxx11, ptr noundef nonnull align 8 dereferenceable(32) %name)
  %call3 = tail call noundef nonnull align 8 dereferenceable(56) ptr @_ZN8facebook5velox16getTypeStringMapB5cxx11Ev()
  %cmp.i = icmp eq ptr %call.i, null
  br i1 %cmp.i, label %if.then, label %if.end

if.then:                                          ; preds = %entry
  tail call void @llvm.trap()
  unreachable

if.end:                                           ; preds = %entry
  %second = getelementptr inbounds i8, ptr %call.i, i64 40
  %0 = load i8, ptr %second, align 8
  ret i8 %0
}